target datalayout = "e-m:e-p270:32:32-p271:32:32-p272:64:64-i64:64-i128:128-f80:128-n8:16:32:64-S128"
target triple = "x86_64-pc-linux-gnu"

%struct.sp_int = type { i16, i16, [129 x i64] }

; Function Attrs: nounwind uwtable
define i32 @sp_submod(ptr noundef %0, ptr noundef %1, ptr noundef %2, ptr noundef %3) #0 {
  %5 = alloca ptr, align 8
  %6 = alloca ptr, align 8
  %7 = alloca ptr, align 8
  %8 = alloca ptr, align 8
  %9 = alloca i32, align 4
  store ptr %0, ptr %5, align 8, !tbaa !3
  store ptr %1, ptr %6, align 8, !tbaa !3
  store ptr %2, ptr %7, align 8, !tbaa !3
  store ptr %3, ptr %8, align 8, !tbaa !3
  call void @llvm.lifetime.start.p0(i64 4, ptr %9) #8
  store i32 0, ptr %9, align 4, !tbaa !8
  %10 = load ptr, ptr %5, align 8, !tbaa !3
  %11 = icmp eq ptr %10, null
  br i1 %11, label %21, label %12

12:                                               ; preds = %4
  %13 = load ptr, ptr %6, align 8, !tbaa !3
  %14 = icmp eq ptr %13, null
  br i1 %14, label %21, label %15

15:                                               ; preds = %12
  %16 = load ptr, ptr %7, align 8, !tbaa !3
  %17 = icmp eq ptr %16, null
  br i1 %17, label %21, label %18

18:                                               ; preds = %15
  %19 = load ptr, ptr %8, align 8, !tbaa !3
  %20 = icmp eq ptr %19, null
  br i1 %20, label %21, label %22

21:                                               ; preds = %18, %15, %12, %4
  store i32 -98, ptr %9, align 4, !tbaa !8
  br label %46

22:                                               ; preds = %18
  %23 = load ptr, ptr %5, align 8, !tbaa !3
  %24 = getelementptr inbounds nuw %struct.sp_int, ptr %23, i32 0, i32 0
  %25 = load i16, ptr %24, align 8, !tbaa !15
  %26 = zext i16 %25 to i32
  %27 = icmp sge i32 %26, 129
  br i1 %27, label %28, label %29

28:                                               ; preds = %22
  store i32 -98, ptr %9, align 4, !tbaa !8
  br label %45

29:                                               ; preds = %22
  %30 = load ptr, ptr %6, align 8, !tbaa !3
  %31 = getelementptr inbounds nuw %struct.sp_int, ptr %30, i32 0, i32 0
  %32 = load i16, ptr %31, align 8, !tbaa !15
  %33 = zext i16 %32 to i32
  %34 = icmp sge i32 %33, 129
  br i1 %34, label %35, label %36

35:                                               ; preds = %29
  store i32 -98, ptr %9, align 4, !tbaa !8
  br label %44

36:                                               ; preds = %29
  %37 = load ptr, ptr %7, align 8, !tbaa !3
  %38 = getelementptr inbounds nuw %struct.sp_int, ptr %37, i32 0, i32 0
  %39 = load i16, ptr %38, align 8, !tbaa !15
  %40 = zext i16 %39 to i32
  %41 = icmp sge i32 %40, 129
  br i1 %41, label %42, label %43

42:                                               ; preds = %36
  store i32 -98, ptr %9, align 4, !tbaa !8
  br label %43

43:                                               ; preds = %42, %36
  br label %44

44:                                               ; preds = %43, %35
  br label %45

45:                                               ; preds = %44, %28
  br label %46

46:                                               ; preds = %45, %21
  %47 = load i32, ptr %9, align 4, !tbaa !8
  %48 = icmp eq i32 %47, 0
  br i1 %48, label %49, label %55

49:                                               ; preds = %46
  %50 = load ptr, ptr %5, align 8, !tbaa !3
  %51 = load ptr, ptr %6, align 8, !tbaa !3
  %52 = load ptr, ptr %7, align 8, !tbaa !3
  %53 = load ptr, ptr %8, align 8, !tbaa !3
  %54 = call i32 @_sp_submod(ptr noundef %50, ptr noundef %51, ptr noundef %52, ptr noundef %53)
  store i32 %54, ptr %9, align 4, !tbaa !8
  br label %55

55:                                               ; preds = %49, %46
  %56 = load i32, ptr %9, align 4, !tbaa !8
  call void @llvm.lifetime.end.p0(i64 4, ptr %9) #8
  ret i32 %56
}